target datalayout = "e-m:e-p270:32:32-p271:32:32-p272:64:64-i64:64-i128:128-f80:128-n8:16:32:64-S128"
target triple = "x86_64-pc-linux-gnu"

%struct.PJconsts = type { ptr, ptr, ptr, ptr, ptr, ptr, ptr, ptr, ptr, ptr, ptr, ptr, i32, ptr, ptr, ptr, ptr, ptr, ptr, ptr, ptr, double, double, double, double, double, double, double, double, double, double, double, double, double, double, double, double, double, double, double, double, double, double, i32, i32, i32, i32, i32, i32, i32, i32, i32, i32, i32, ptr, ptr, ptr, ptr, ptr, ptr, double, double, double, double, double, double, double, double, double, double, double, i32, [7 x double], i32, ptr, ptr, double, double, i32, [4 x i8], %"class.std::shared_ptr", i8, double, i8, %"class.std::__cxx11::basic_string", %"class.std::__cxx11::basic_string", %"class.std::__cxx11::basic_string", i8, %"class.std::vector", i32, %"class.std::vector.3", i32, i8, i8, i8, ptr }
%"class.std::shared_ptr" = type { %"class.std::__shared_ptr" }
%"class.std::__shared_ptr" = type { ptr, %"class.std::__shared_count" }
%"class.std::__shared_count" = type { ptr }
%"class.std::__cxx11::basic_string" = type { %"struct.std::__cxx11::basic_string<char>::_Alloc_hider", i64, %union.anon }
%"struct.std::__cxx11::basic_string<char>::_Alloc_hider" = type { ptr }
%union.anon = type { i64, [8 x i8] }
%"class.std::vector" = type { %"struct.std::_Vector_base" }
%"struct.std::_Vector_base" = type { %"struct.std::_Vector_base<osgeo::proj::operation::GridDescription, std::allocator<osgeo::proj::operation::GridDescription>>::_Vector_impl" }
%"struct.std::_Vector_base<osgeo::proj::operation::GridDescription, std::allocator<osgeo::proj::operation::GridDescription>>::_Vector_impl" = type { %"struct.std::_Vector_base<osgeo::proj::operation::GridDescription, std::allocator<osgeo::proj::operation::GridDescription>>::_Vector_impl_data" }
%"struct.std::_Vector_base<osgeo::proj::operation::GridDescription, std::allocator<osgeo::proj::operation::GridDescription>>::_Vector_impl_data" = type { ptr, ptr, ptr }
%"class.std::vector.3" = type { %"struct.std::_Vector_base.4" }
%"struct.std::_Vector_base.4" = type { %"struct.std::_Vector_base<PJCoordOperation, std::allocator<PJCoordOperation>>::_Vector_impl" }
%"struct.std::_Vector_base<PJCoordOperation, std::allocator<PJCoordOperation>>::_Vector_impl" = type { %"struct.std::_Vector_base<PJCoordOperation, std::allocator<PJCoordOperation>>::_Vector_impl_data" }
%"struct.std::_Vector_base<PJCoordOperation, std::allocator<PJCoordOperation>>::_Vector_impl_data" = type { ptr, ptr, ptr }
%"struct.(anonymous namespace)::PushPop" = type { i8, i8, i8, i8 }

@.str.26 = private unnamed_addr constant [4 x i8] c"v_1\00", align 1
@.str.27 = private unnamed_addr constant [4 x i8] c"v_2\00", align 1
@.str.28 = private unnamed_addr constant [4 x i8] c"v_3\00", align 1
@.str.29 = private unnamed_addr constant [4 x i8] c"v_4\00", align 1

; Function Attrs: mustprogress uwtable
define internal noundef ptr @_ZL13setup_pushpopP8PJconsts(ptr noundef %0) #0 {
  %2 = alloca ptr, align 8
  %3 = alloca ptr, align 8
  %4 = alloca ptr, align 8
  %5 = alloca i32, align 4
  store ptr %0, ptr %3, align 8, !tbaa !3
  call void @llvm.lifetime.start.p0(i64 8, ptr %4) #18
  %6 = call noalias ptr @calloc(i64 noundef 1, i64 noundef 4) #21
  store ptr %6, ptr %4, align 8, !tbaa !149
  %7 = load ptr, ptr %4, align 8, !tbaa !149
  %8 = load ptr, ptr %3, align 8, !tbaa !3
  %9 = getelementptr inbounds nuw %struct.PJconsts, ptr %8, i32 0, i32 11
  store ptr %7, ptr %9, align 8, !tbaa !79
  %10 = load ptr, ptr %3, align 8, !tbaa !3
  %11 = getelementptr inbounds nuw %struct.PJconsts, ptr %10, i32 0, i32 11
  %12 = load ptr, ptr %11, align 8, !tbaa !79
  %13 = icmp eq ptr null, %12
  br i1 %13, label %14, label %17

14:                                               ; preds = %1
  %15 = load ptr, ptr %3, align 8, !tbaa !3
  %16 = call noundef ptr @_ZL10destructorP8PJconstsi(ptr noundef %15, i32 noundef 4096)
  store ptr %16, ptr %2, align 8
  store i32 1, ptr %5, align 4
  br label %59

17:                                               ; preds = %1
  %18 = load ptr, ptr %3, align 8, !tbaa !3
  %19 = getelementptr inbounds nuw %struct.PJconsts, ptr %18, i32 0, i32 3
  %20 = load ptr, ptr %19, align 8, !tbaa !80
  %21 = call noundef ptr @_Z15pj_param_existsP8ARG_listPKc(ptr noundef %20, ptr noundef @.str.26)
  %22 = icmp ne ptr %21, null
  br i1 %22, label %23, label %26

23:                                               ; preds = %17
  %24 = load ptr, ptr %4, align 8, !tbaa !149
  %25 = getelementptr inbounds nuw %"struct.(anonymous namespace)::PushPop", ptr %24, i32 0, i32 0
  store i8 1, ptr %25, align 1, !tbaa !151
  br label %26

26:                                               ; preds = %23, %17
  %27 = load ptr, ptr %3, align 8, !tbaa !3
  %28 = getelementptr inbounds nuw %struct.PJconsts, ptr %27, i32 0, i32 3
  %29 = load ptr, ptr %28, align 8, !tbaa !80
  %30 = call noundef ptr @_Z15pj_param_existsP8ARG_listPKc(ptr noundef %29, ptr noundef @.str.27)
  %31 = icmp ne ptr %30, null
  br i1 %31, label %32, label %35

32:                                               ; preds = %26
  %33 = load ptr, ptr %4, align 8, !tbaa !149
  %34 = getelementptr inbounds nuw %"struct.(anonymous namespace)::PushPop", ptr %33, i32 0, i32 1
  store i8 1, ptr %34, align 1, !tbaa !153
  br label %35

35:                                               ; preds = %32, %26
  %36 = load ptr, ptr %3, align 8, !tbaa !3
  %37 = getelementptr inbounds nuw %struct.PJconsts, ptr %36, i32 0, i32 3
  %38 = load ptr, ptr %37, align 8, !tbaa !80
  %39 = call noundef ptr @_Z15pj_param_existsP8ARG_listPKc(ptr noundef %38, ptr noundef @.str.28)
  %40 = icmp ne ptr %39, null
  br i1 %40, label %41, label %44

41:                                               ; preds = %35
  %42 = load ptr, ptr %4, align 8, !tbaa !149
  %43 = getelementptr inbounds nuw %"struct.(anonymous namespace)::PushPop", ptr %42, i32 0, i32 2
  store i8 1, ptr %43, align 1, !tbaa !154
  br label %44

44:                                               ; preds = %41, %35
  %45 = load ptr, ptr %3, align 8, !tbaa !3
  %46 = getelementptr inbounds nuw %struct.PJconsts, ptr %45, i32 0, i32 3
  %47 = load ptr, ptr %46, align 8, !tbaa !80
  %48 = call noundef ptr @_Z15pj_param_existsP8ARG_listPKc(ptr noundef %47, ptr noundef @.str.29)
  %49 = icmp ne ptr %48, null
  br i1 %49, label %50, label %53

50:                                               ; preds = %44
  %51 = load ptr, ptr %4, align 8, !tbaa !149
  %52 = getelementptr inbounds nuw %"struct.(anonymous namespace)::PushPop", ptr %51, i32 0, i32 3
  store i8 1, ptr %52, align 1, !tbaa !155
  br label %53

53:                                               ; preds = %50, %44
  %54 = load ptr, ptr %3, align 8, !tbaa !3
  %55 = getelementptr inbounds nuw %struct.PJconsts, ptr %54, i32 0, i32 52
  store i32 0, ptr %55, align 4, !tbaa !39
  %56 = load ptr, ptr %3, align 8, !tbaa !3
  %57 = getelementptr inbounds nuw %struct.PJconsts, ptr %56, i32 0, i32 53
  store i32 0, ptr %57, align 8, !tbaa !40
  %58 = load ptr, ptr %3, align 8, !tbaa !3
  store ptr %58, ptr %2, align 8
  store i32 1, ptr %5, align 4
  br label %59

59:                                               ; preds = %53, %14
  call void @llvm.lifetime.end.p0(i64 8, ptr %4) #18
  %60 = load ptr, ptr %2, align 8
  ret ptr %60
}