; Function Attrs: mustprogress uwtable
define internal fastcc noundef ptr @_ZL13setup_pushpopP8PJconsts(ptr noundef initializes((88, 96)) %0) unnamed_addr #0 {
  %2 = tail call noalias dereferenceable_or_null(4) ptr @calloc(i64 noundef 1, i64 noundef 4) #21
  %3 = getelementptr inbounds nuw i8, ptr %0, i64 88
  store ptr %2, ptr %3, align 8, !tbaa !77
  %4 = icmp eq ptr %2, null
  br i1 %4, label %5, label %7

5:                                                ; preds = %1
  %6 = tail call noundef ptr @_ZL10destructorP8PJconstsi(ptr noundef nonnull %0, i32 noundef 4096)
  br label %30

7:                                                ; preds = %1
  %8 = getelementptr inbounds nuw i8, ptr %0, i64 24
  %9 = load ptr, ptr %8, align 8, !tbaa !78
  %10 = tail call noundef ptr @_Z15pj_param_existsP8ARG_listPKc(ptr noundef %9, ptr noundef nonnull @.str.26)
  %.not = icmp eq ptr %10, null
  br i1 %.not, label %12, label %11

11:                                               ; preds = %7
  store i8 1, ptr %2, align 1, !tbaa !141
  br label %12

12:                                               ; preds = %11, %7
  %13 = load ptr, ptr %8, align 8, !tbaa !78
  %14 = tail call noundef ptr @_Z15pj_param_existsP8ARG_listPKc(ptr noundef %13, ptr noundef nonnull @.str.27)
  %.not17 = icmp eq ptr %14, null
  br i1 %.not17, label %17, label %15

15:                                               ; preds = %12
  %16 = getelementptr inbounds nuw i8, ptr %2, i64 1
  store i8 1, ptr %16, align 1, !tbaa !145
  br label %17

17:                                               ; preds = %15, %12
  %18 = load ptr, ptr %8, align 8, !tbaa !78
  %19 = tail call noundef ptr @_Z15pj_param_existsP8ARG_listPKc(ptr noundef %18, ptr noundef nonnull @.str.28)
  %.not18 = icmp eq ptr %19, null
  br i1 %.not18, label %22, label %20

20:                                               ; preds = %17
  %21 = getelementptr inbounds nuw i8, ptr %2, i64 2
  store i8 1, ptr %21, align 1, !tbaa !146
  br label %22

22:                                               ; preds = %20, %17
  %23 = load ptr, ptr %8, align 8, !tbaa !78
  %24 = tail call noundef ptr @_Z15pj_param_existsP8ARG_listPKc(ptr noundef %23, ptr noundef nonnull @.str.29)
  %.not19 = icmp eq ptr %24, null
  br i1 %.not19, label %27, label %25

25:                                               ; preds = %22
  %26 = getelementptr inbounds nuw i8, ptr %2, i64 3
  store i8 1, ptr %26, align 1, !tbaa !147
  br label %27

27:                                               ; preds = %25, %22
  %28 = getelementptr inbounds nuw i8, ptr %0, i64 380
  store i32 0, ptr %28, align 4, !tbaa !38
  %29 = getelementptr inbounds nuw i8, ptr %0, i64 384
  store i32 0, ptr %29, align 8, !tbaa !39
  br label %30

30:                                               ; preds = %27, %5
  %.0 = phi ptr [ %6, %5 ], [ %0, %27 ]
  ret ptr %.0
}